target datalayout = "e-m:e-p270:32:32-p271:32:32-p272:64:64-i64:64-i128:128-f80:128-n8:16:32:64-S128"
target triple = "x86_64-pc-linux-gnu"

%struct.PLATFORM_hid_device_ = type { i32, i32, i32, ptr, ptr }

@.str.11 = private unnamed_addr constant [21 x i8] c"ioctl (SFEATURE): %s\00", align 1
@.str.31 = private unnamed_addr constant [3 x i8] c"%s\00", align 1

; Function Attrs: nounwind uwtable
define internal void @register_error_str(ptr noundef %0, ptr noundef %1) #0 {
  %3 = alloca ptr, align 8
  %4 = alloca ptr, align 8
  store ptr %0, ptr %3, align 8
  store ptr %1, ptr %4, align 8
  %5 = load ptr, ptr %3, align 8
  %6 = load ptr, ptr %5, align 8
  call void @free(ptr noundef %6) #10
  %7 = load ptr, ptr %4, align 8
  %8 = icmp ne ptr %7, null
  br i1 %8, label %9, label %12

9:                                                ; preds = %2
  %10 = load ptr, ptr %4, align 8
  %11 = call zeroext i1 (ptr, ...) @SDL_SetError_REAL(ptr noundef @.str.31, ptr noundef %10)
  br label %14

12:                                               ; preds = %2
  %13 = call zeroext i1 @SDL_ClearError_REAL()
  br label %14

14:                                               ; preds = %12, %9
  ret void
}

; Function Attrs: nounwind uwtable
define internal void @register_device_error(ptr noundef %0, ptr noundef %1) #0 {
  %3 = alloca ptr, align 8
  %4 = alloca ptr, align 8
  store ptr %0, ptr %3, align 8
  store ptr %1, ptr %4, align 8
  %5 = load ptr, ptr %3, align 8
  %6 = getelementptr inbounds nuw %struct.PLATFORM_hid_device_, ptr %5, i32 0, i32 3
  %7 = load ptr, ptr %4, align 8
  call void @register_error_str(ptr noundef %6, ptr noundef %7)
  ret void
}

; Function Attrs: nounwind uwtable
define hidden i32 @PLATFORM_hid_send_feature_report(ptr noundef %0, ptr noundef %1, i64 noundef %2) #0 {
  %4 = alloca ptr, align 8
  %5 = alloca ptr, align 8
  %6 = alloca i64, align 8
  %7 = alloca i32, align 4
  %8 = alloca i32, align 4
  store ptr %0, ptr %4, align 8
  store ptr %1, ptr %5, align 8
  store i64 %2, ptr %6, align 8
  call void @llvm.lifetime.start.p0(i64 4, ptr %7) #10
  call void @llvm.lifetime.start.p0(i64 4, ptr %8) #10
  %9 = load ptr, ptr %4, align 8
  call void @register_device_error(ptr noundef %9, ptr noundef null)
  store i32 0, ptr %7, align 4
  br label %10

10:                                               ; preds = %38, %3
  %11 = load i32, ptr %7, align 4
  %12 = icmp slt i32 %11, 50
  br i1 %12, label %13, label %41

13:                                               ; preds = %10
  %14 = load ptr, ptr %4, align 8
  %15 = getelementptr inbounds nuw %struct.PLATFORM_hid_device_, ptr %14, i32 0, i32 0
  %16 = load i32, ptr %15, align 8
  %17 = load i64, ptr %6, align 8
  %18 = shl i64 %17, 16
  %19 = or i64 3221243910, %18
  %20 = load ptr, ptr %5, align 8
  %21 = call i32 (i32, i64, ...) @ioctl(i32 noundef %16, i64 noundef %19, ptr noundef %20) #10
  store i32 %21, ptr %8, align 4
  %22 = load i32, ptr %8, align 4
  %23 = icmp slt i32 %22, 0
  br i1 %23, label %24, label %29

24:                                               ; preds = %13
  %25 = call ptr @__errno_location() #13
  %26 = load i32, ptr %25, align 4
  %27 = icmp eq i32 %26, 32
  br i1 %27, label %28, label %29

28:                                               ; preds = %24
  br label %38

29:                                               ; preds = %24, %13
  %30 = load i32, ptr %8, align 4
  %31 = icmp slt i32 %30, 0
  br i1 %31, label %32, label %37

32:                                               ; preds = %29
  %33 = load ptr, ptr %4, align 8
  %34 = call ptr @__errno_location() #13
  %35 = load i32, ptr %34, align 4
  %36 = call ptr @strerror(i32 noundef %35) #10
  call void (ptr, ptr, ...) @register_device_error_format(ptr noundef %33, ptr noundef @.str.11, ptr noundef %36)
  br label %37

37:                                               ; preds = %32, %29
  br label %41

38:                                               ; preds = %28
  %39 = load i32, ptr %7, align 4
  %40 = add nsw i32 %39, 1
  store i32 %40, ptr %7, align 4
  br label %10, !llvm.loop !11

41:                                               ; preds = %37, %10
  %42 = load i32, ptr %8, align 4
  call void @llvm.lifetime.end.p0(i64 4, ptr %8) #10
  call void @llvm.lifetime.end.p0(i64 4, ptr %7) #10
  ret i32 %42
}