; Function Attrs: nounwind uwtable
define hidden i32 @PLATFORM_hid_send_feature_report(ptr noundef readonly captures(none) %0, ptr noundef %1, i64 noundef %2) #1 {
  %4 = getelementptr i8, ptr %0, i64 16
  %.val = load ptr, ptr %4, align 8
  tail call void @free(ptr noundef %.val) #22
  %5 = tail call zeroext i1 @SDL_ClearError_REAL() #22
  %6 = shl i64 %2, 16
  %7 = or i64 %6, 3221243910
  br label %10

8:                                                ; preds = %14
  %9 = add nuw nsw i32 %.0913, 1
  %exitcond.not = icmp eq i32 %9, 50
  br i1 %exitcond.not, label %.critedge, label %10, !llvm.loop !12

10:                                               ; preds = %3, %8
  %.0913 = phi i32 [ 0, %3 ], [ %9, %8 ]
  %11 = load i32, ptr %0, align 8
  %12 = tail call i32 (i32, i64, ...) @ioctl(i32 noundef %11, i64 noundef %7, ptr noundef %1) #22
  %13 = icmp slt i32 %12, 0
  br i1 %13, label %14, label %.critedge

14:                                               ; preds = %10
  %15 = tail call ptr @__errno_location() #25
  %16 = load i32, ptr %15, align 4
  %17 = icmp eq i32 %16, 32
  br i1 %17, label %8, label %18

18:                                               ; preds = %14
  %19 = tail call ptr @strerror(i32 noundef %16) #22
  tail call void (ptr, ptr, ...) @register_device_error_format(ptr noundef nonnull %0, ptr noundef nonnull @.str.11, ptr noundef %19)
  br label %.critedge

.critedge:                                        ; preds = %10, %8, %18
  ret i32 %12
}